target datalayout = "e-m:e-p270:32:32-p271:32:32-p272:64:64-i64:64-i128:128-f80:128-n8:16:32:64-S128"
target triple = "x86_64-pc-linux-gnu"

@hf_ipmi_se_2a_user_id = internal global i32 0, align 4
@.str.1022 = private unnamed_addr constant [15 x i8] c" (unspecified)\00", align 1

; Function Attrs: null_pointer_is_valid sspstrong uwtable
define internal zeroext i1 @ssi_2a_2(ptr noundef %0, ptr noundef %1, ptr noundef %2, i32 noundef %3, i32 noundef %4, i32 noundef %5) #0 {
  %7 = alloca ptr, align 8
  %8 = alloca ptr, align 8
  %9 = alloca ptr, align 8
  %10 = alloca i32, align 4
  %11 = alloca i32, align 4
  %12 = alloca i32, align 4
  %13 = alloca ptr, align 8
  store ptr %0, ptr %7, align 8
  store ptr %1, ptr %8, align 8
  store ptr %2, ptr %9, align 8
  store i32 %3, ptr %10, align 4
  store i32 %4, ptr %11, align 4
  store i32 %5, ptr %12, align 4
  call void @llvm.lifetime.start.p0(i64 8, ptr %13) #5
  %14 = load i32, ptr %10, align 4
  %15 = icmp eq i32 %14, 3
  br i1 %15, label %16, label %27

16:                                               ; preds = %6
  %17 = load ptr, ptr %7, align 8
  %18 = load i32, ptr @hf_ipmi_se_2a_user_id, align 4
  %19 = load ptr, ptr %8, align 8
  %20 = call ptr @proto_tree_add_item(ptr noundef %17, i32 noundef %18, ptr noundef %19, i32 noundef 0, i32 noundef 1, i32 noundef -2147483648)
  store ptr %20, ptr %13, align 8
  %21 = load i32, ptr %12, align 4
  %22 = and i32 %21, 63
  %23 = icmp eq i32 %22, 0
  br i1 %23, label %24, label %26

24:                                               ; preds = %16
  %25 = load ptr, ptr %13, align 8
  call void (ptr, ptr, ...) @proto_item_append_text(ptr noundef %25, ptr noundef @.str.1022)
  br label %26

26:                                               ; preds = %24, %16
  br label %27

27:                                               ; preds = %26, %6
  call void @llvm.lifetime.end.p0(i64 8, ptr %13) #5
  ret i1 false
}